; Function Attrs: mustprogress uwtable
define noundef nonnull align 8 dereferenceable(48) ptr @_ZN6icu_7513LocaleBuilder14setLanguageTagENS_11StringPieceE(ptr noundef nonnull returned align 8 dereferenceable(48) %this, ptr %tag.coerce0, i32 %tag.coerce1) local_unnamed_addr #1 align 2 personality ptr @__gxx_personality_v0 {
entry:
  %l = alloca %"class.icu_75::Locale", align 8
  %status_ = getelementptr inbounds i8, ptr %this, i64 8
  call void @_ZN6icu_756Locale14forLanguageTagENS_11StringPieceER10UErrorCode(ptr nonnull sret(%"class.icu_75::Locale") align 8 %l, ptr %tag.coerce0, i32 %tag.coerce1, ptr noundef nonnull align 4 dereferenceable(4) %status_)
  %0 = load i32, ptr %status_, align 8
  %cmp.i = icmp slt i32 %0, 1
  br i1 %cmp.i, label %if.end, label %cleanup

lpad:                                             ; preds = %if.end
  %1 = landingpad { ptr, i32 }
          cleanup
  call void @_ZN6icu_756LocaleD1Ev(ptr noundef nonnull align 8 dereferenceable(217) %l) #13
  resume { ptr, i32 } %1

if.end:                                           ; preds = %entry
  %call4 = invoke noundef nonnull align 8 dereferenceable(48) ptr @_ZN6icu_7513LocaleBuilder9setLocaleERKNS_6LocaleE(ptr noundef nonnull align 8 dereferenceable(48) %this, ptr noundef nonnull align 8 dereferenceable(217) %l)
          to label %cleanup unwind label %lpad

cleanup:                                          ; preds = %if.end, %entry
  call void @_ZN6icu_756LocaleD1Ev(ptr noundef nonnull align 8 dereferenceable(217) %l) #13
  ret ptr %this
}